target datalayout = "e-m:e-p270:32:32-p271:32:32-p272:64:64-i64:64-i128:128-f80:128-n8:16:32:64-S128"
target triple = "x86_64-unknown-linux-gnu"

%struct.nghttp2_data_provider = type { %union.nghttp2_data_source, ptr }
%union.nghttp2_data_source = type { ptr }
%"class.node::http2::Http2Stream::Provider" = type <{ ptr, %struct.nghttp2_data_provider, i8, [7 x i8] }>

@_ZTVN4node5http211Http2Stream8ProviderE = dso_local unnamed_addr constant { [4 x ptr] } { [4 x ptr] [ptr null, ptr null, ptr @_ZN4node5http211Http2Stream8ProviderD1Ev, ptr @_ZN4node5http211Http2Stream8ProviderD0Ev] }, align 8
@_ZTVN4node5http211Http2Stream8Provider6StreamE = linkonce_odr dso_local unnamed_addr constant { [4 x ptr] } { [4 x ptr] [ptr null, ptr null, ptr @_ZN4node5http211Http2Stream8Provider6StreamD2Ev, ptr @_ZN4node5http211Http2Stream8Provider6StreamD0Ev] }, comdat, align 8

; Function Attrs: mustprogress nounwind uwtable
define dso_local void @_ZN4node5http211Http2Stream8ProviderC2Ei(ptr noundef nonnull align 8 dereferenceable(25) %this, i32 noundef %options) unnamed_addr #4 align 2 {
entry:
  %this.addr = alloca ptr, align 8
  %options.addr = alloca i32, align 4
  store ptr %this, ptr %this.addr, align 8
  store i32 %options, ptr %options.addr, align 4
  %this1 = load ptr, ptr %this.addr, align 8
  store ptr getelementptr inbounds ({ [4 x ptr] }, ptr @_ZTVN4node5http211Http2Stream8ProviderE, i32 0, i32 0, i32 2), ptr %this1, align 8
  %empty_ = getelementptr inbounds %"class.node::http2::Http2Stream::Provider", ptr %this1, i32 0, i32 2
  store i8 0, ptr %empty_, align 8
  %provider_2 = getelementptr inbounds %"class.node::http2::Http2Stream::Provider", ptr %this1, i32 0, i32 1
  %source = getelementptr inbounds %struct.nghttp2_data_provider, ptr %provider_2, i32 0, i32 0
  store ptr null, ptr %source, align 8
  %0 = load i32, ptr %options.addr, align 4
  %and = and i32 %0, 1
  %tobool = icmp ne i32 %and, 0
  %empty_3 = getelementptr inbounds %"class.node::http2::Http2Stream::Provider", ptr %this1, i32 0, i32 2
  %frombool = zext i1 %tobool to i8
  store i8 %frombool, ptr %empty_3, align 8
  ret void
}

; Function Attrs: mustprogress nounwind uwtable
define dso_local void @_ZN4node5http211Http2Stream8Provider6StreamC2Ei(ptr noundef nonnull align 8 dereferenceable(25) %this, i32 noundef %options) unnamed_addr #4 align 2 {
entry:
  %this.addr = alloca ptr, align 8
  %options.addr = alloca i32, align 4
  store ptr %this, ptr %this.addr, align 8
  store i32 %options, ptr %options.addr, align 4
  %this1 = load ptr, ptr %this.addr, align 8
  %0 = load i32, ptr %options.addr, align 4
  call void @_ZN4node5http211Http2Stream8ProviderC2Ei(ptr noundef nonnull align 8 dereferenceable(25) %this1, i32 noundef %0)
  store ptr getelementptr inbounds ({ [4 x ptr] }, ptr @_ZTVN4node5http211Http2Stream8Provider6StreamE, i32 0, i32 0, i32 2), ptr %this1, align 8
  %provider_ = getelementptr inbounds %"class.node::http2::Http2Stream::Provider", ptr %this1, i32 0, i32 1
  %read_callback = getelementptr inbounds %struct.nghttp2_data_provider, ptr %provider_, i32 0, i32 1
  store ptr @_ZN4node5http211Http2Stream8Provider6Stream6OnReadEP15nghttp2_sessioniPhmPjP19nghttp2_data_sourcePv, ptr %read_callback, align 8
  ret void
}