; Function Attrs: mustprogress nofree norecurse nosync nounwind willreturn memory(argmem: write) uwtable
define dso_local void @_ZN4node5http211Http2Stream8Provider6StreamC2Ei(ptr nocapture noundef nonnull writeonly align 8 dereferenceable(25) %this, i32 noundef %options) unnamed_addr #19 align 2 {
entry:
  %empty_.i = getelementptr inbounds i8, ptr %this, i64 24
  %provider_2.i = getelementptr inbounds i8, ptr %this, i64 8
  store ptr null, ptr %provider_2.i, align 8
  %0 = trunc i32 %options to i8
  %frombool.i = and i8 %0, 1
  store i8 %frombool.i, ptr %empty_.i, align 8
  store ptr getelementptr inbounds ({ [4 x ptr] }, ptr @_ZTVN4node5http211Http2Stream8Provider6StreamE, i64 0, i32 0, i64 2), ptr %this, align 8
  %read_callback = getelementptr inbounds i8, ptr %this, i64 16
  store ptr @_ZN4node5http211Http2Stream8Provider6Stream6OnReadEP15nghttp2_sessioniPhmPjP19nghttp2_data_sourcePv, ptr %read_callback, align 8
  ret void
}